; Function Attrs: mustprogress uwtable
define hidden noundef i32 @_ZN3fpa6solver5checkEv(ptr noundef nonnull align 8 dereferenceable(1556) %this) unnamed_addr #3 align 2 {
entry:
  %vtable = load ptr, ptr %this, align 8
  %vfn = getelementptr inbounds i8, ptr %vtable, i64 48
  %0 = load ptr, ptr %vfn, align 8
  %call = tail call noundef zeroext i1 %0(ptr noundef nonnull align 8 dereferenceable(1556) %this)
  %. = zext i1 %call to i32
  ret i32 %.
}